target datalayout = "e-m:e-p270:32:32-p271:32:32-p272:64:64-i64:64-i128:128-f80:128-n8:16:32:64-S128"
target triple = "x86_64-unknown-linux-gnu"

@_ZZN6hermes2vmL12dayFromMonthEjbE13standardTable = internal constant [13 x i16] [i16 0, i16 31, i16 59, i16 90, i16 120, i16 151, i16 181, i16 212, i16 243, i16 273, i16 304, i16 334, i16 365], align 16
@_ZZN6hermes2vmL12dayFromMonthEjbE13leapYearTable = internal constant [13 x i16] [i16 0, i16 31, i16 60, i16 91, i16 121, i16 152, i16 182, i16 213, i16 244, i16 274, i16 305, i16 335, i16 366], align 16

; Function Attrs: mustprogress nounwind uwtable
define linkonce_odr noundef double @_ZSt4fmodIdiEN9__gnu_cxx9__promoteIDTplcvNS1_IT_Xsr3std12__is_integerIS2_EE7__valueEE6__typeELi0EcvNS1_IT0_Xsr3std12__is_integerIS5_EE7__valueEE6__typeELi0EEXsr3std12__is_integerIS8_EE7__valueEE6__typeES2_S5_(double noundef %__x, i32 noundef %__y) #0 comdat {
entry:
  %__x.addr = alloca double, align 8
  %__y.addr = alloca i32, align 4
  store double %__x, ptr %__x.addr, align 8
  store i32 %__y, ptr %__y.addr, align 4
  %0 = load double, ptr %__x.addr, align 8
  %1 = load i32, ptr %__y.addr, align 4
  %conv = sitofp i32 %1 to double
  %call = call double @fmod(double noundef %0, double noundef %conv) #7
  ret double %call
}

; Function Attrs: mustprogress nounwind uwtable
define internal noundef zeroext i1 @_ZN6hermes2vmL10isLeapYearEd(double noundef %y) #0 {
entry:
  %retval = alloca i1, align 1
  %y.addr = alloca double, align 8
  store double %y, ptr %y.addr, align 8
  %0 = load double, ptr %y.addr, align 8
  %call = call noundef double @_ZSt4fmodIdiEN9__gnu_cxx9__promoteIDTplcvNS1_IT_Xsr3std12__is_integerIS2_EE7__valueEE6__typeELi0EcvNS1_IT0_Xsr3std12__is_integerIS5_EE7__valueEE6__typeELi0EEXsr3std12__is_integerIS8_EE7__valueEE6__typeES2_S5_(double noundef %0, i32 noundef 4)
  %cmp = fcmp une double %call, 0.000000e+00
  br i1 %cmp, label %if.then, label %if.end

if.then:                                          ; preds = %entry
  store i1 false, ptr %retval, align 1
  br label %return

if.end:                                           ; preds = %entry
  %1 = load double, ptr %y.addr, align 8
  %call1 = call noundef double @_ZSt4fmodIdiEN9__gnu_cxx9__promoteIDTplcvNS1_IT_Xsr3std12__is_integerIS2_EE7__valueEE6__typeELi0EcvNS1_IT0_Xsr3std12__is_integerIS5_EE7__valueEE6__typeELi0EEXsr3std12__is_integerIS8_EE7__valueEE6__typeES2_S5_(double noundef %1, i32 noundef 100)
  %cmp2 = fcmp une double %call1, 0.000000e+00
  br i1 %cmp2, label %if.then3, label %if.end4

if.then3:                                         ; preds = %if.end
  store i1 true, ptr %retval, align 1
  br label %return

if.end4:                                          ; preds = %if.end
  %2 = load double, ptr %y.addr, align 8
  %call5 = call noundef double @_ZSt4fmodIdiEN9__gnu_cxx9__promoteIDTplcvNS1_IT_Xsr3std12__is_integerIS2_EE7__valueEE6__typeELi0EcvNS1_IT0_Xsr3std12__is_integerIS5_EE7__valueEE6__typeELi0EEXsr3std12__is_integerIS8_EE7__valueEE6__typeES2_S5_(double noundef %2, i32 noundef 400)
  %cmp6 = fcmp une double %call5, 0.000000e+00
  br i1 %cmp6, label %if.then7, label %if.end8

if.then7:                                         ; preds = %if.end4
  store i1 false, ptr %retval, align 1
  br label %return

if.end8:                                          ; preds = %if.end4
  store i1 true, ptr %retval, align 1
  br label %return

return:                                           ; preds = %if.end8, %if.then7, %if.then3, %if.then
  %3 = load i1, ptr %retval, align 1
  ret i1 %3
}

; Function Attrs: mustprogress nounwind uwtable
define hidden noundef i32 @_ZN6hermes2vm10daysInYearEd(double noundef %y) #0 {
entry:
  %y.addr = alloca double, align 8
  store double %y, ptr %y.addr, align 8
  %0 = load double, ptr %y.addr, align 8
  %call = call noundef zeroext i1 @_ZN6hermes2vmL10isLeapYearEd(double noundef %0)
  %cond = select i1 %call, i32 366, i32 365
  ret i32 %cond
}

; Function Attrs: mustprogress nounwind uwtable
define internal noundef i32 @_ZN6hermes2vmL12dayFromMonthEjb(i32 noundef %m, i1 noundef zeroext %leap) #0 {
entry:
  %m.addr = alloca i32, align 4
  %leap.addr = alloca i8, align 1
  store i32 %m, ptr %m.addr, align 4
  %frombool = zext i1 %leap to i8
  store i8 %frombool, ptr %leap.addr, align 1
  %0 = load i8, ptr %leap.addr, align 1
  %tobool = trunc i8 %0 to i1
  br i1 %tobool, label %cond.true, label %cond.false

cond.true:                                        ; preds = %entry
  %1 = load i32, ptr %m.addr, align 4
  %idxprom = zext i32 %1 to i64
  %arrayidx = getelementptr inbounds [13 x i16], ptr @_ZZN6hermes2vmL12dayFromMonthEjbE13leapYearTable, i64 0, i64 %idxprom
  %2 = load i16, ptr %arrayidx, align 2
  br label %cond.end

cond.false:                                       ; preds = %entry
  %3 = load i32, ptr %m.addr, align 4
  %idxprom1 = zext i32 %3 to i64
  %arrayidx2 = getelementptr inbounds [13 x i16], ptr @_ZZN6hermes2vmL12dayFromMonthEjbE13standardTable, i64 0, i64 %idxprom1
  %4 = load i16, ptr %arrayidx2, align 2
  br label %cond.end

cond.end:                                         ; preds = %cond.false, %cond.true
  %cond = phi i16 [ %2, %cond.true ], [ %4, %cond.false ]
  %conv = zext i16 %cond to i32
  ret i32 %conv
}

; Function Attrs: mustprogress nounwind uwtable
define hidden noundef zeroext i1 @_ZN6hermes2vm10inLeapYearEd(double noundef %t) #0 {
entry:
  %t.addr = alloca double, align 8
  store double %t, ptr %t.addr, align 8
  %0 = load double, ptr %t.addr, align 8
  %call = call noundef double @_ZN6hermes2vm12yearFromTimeEd(double noundef %0)
  %call1 = call noundef i32 @_ZN6hermes2vm10daysInYearEd(double noundef %call)
  %cmp = icmp eq i32 %call1, 366
  ret i1 %cmp
}

; Function Attrs: mustprogress nounwind uwtable
define hidden noundef double @_ZN6hermes2vm11dayFromYearEd(double noundef %y) #0 {
entry:
  %y.addr = alloca double, align 8
  store double %y, ptr %y.addr, align 8
  %0 = load double, ptr %y.addr, align 8
  %sub = fsub double %0, 1.970000e+03
  %1 = load double, ptr %y.addr, align 8
  %sub1 = fsub double %1, 1.969000e+03
  %div = fdiv double %sub1, 4.000000e+00
  %2 = call double @llvm.floor.f64(double %div)
  %3 = call double @llvm.fmuladd.f64(double 3.650000e+02, double %sub, double %2)
  %4 = load double, ptr %y.addr, align 8
  %sub2 = fsub double %4, 1.901000e+03
  %div3 = fdiv double %sub2, 1.000000e+02
  %5 = call double @llvm.floor.f64(double %div3)
  %sub4 = fsub double %3, %5
  %6 = load double, ptr %y.addr, align 8
  %sub5 = fsub double %6, 1.601000e+03
  %div6 = fdiv double %sub5, 4.000000e+02
  %7 = call double @llvm.floor.f64(double %div6)
  %add = fadd double %sub4, %7
  ret double %add
}

; Function Attrs: mustprogress nounwind uwtable
define hidden noundef double @_ZN6hermes2vm3dayEd(double noundef %t) #0 {
entry:
  %t.addr = alloca double, align 8
  store double %t, ptr %t.addr, align 8
  %0 = load double, ptr %t.addr, align 8
  %div = fdiv double %0, 8.640000e+07
  %1 = call double @llvm.floor.f64(double %div)
  ret double %1
}

; Function Attrs: mustprogress nounwind uwtable
define hidden noundef double @_ZN6hermes2vm12dateFromTimeEd(double noundef %t) #0 {
entry:
  %t.addr = alloca double, align 8
  %dayWithinYear = alloca double, align 8
  %leap = alloca i8, align 1
  store double %t, ptr %t.addr, align 8
  %0 = load double, ptr %t.addr, align 8
  %call = call noundef double @_ZN6hermes2vm3dayEd(double noundef %0)
  %1 = load double, ptr %t.addr, align 8
  %call1 = call noundef double @_ZN6hermes2vm12yearFromTimeEd(double noundef %1)
  %call2 = call noundef double @_ZN6hermes2vm11dayFromYearEd(double noundef %call1)
  %sub = fsub double %call, %call2
  store double %sub, ptr %dayWithinYear, align 8
  %2 = load double, ptr %t.addr, align 8
  %call3 = call noundef zeroext i1 @_ZN6hermes2vm10inLeapYearEd(double noundef %2)
  %frombool = zext i1 %call3 to i8
  store i8 %frombool, ptr %leap, align 1
  %3 = load double, ptr %dayWithinYear, align 8
  %4 = load double, ptr %t.addr, align 8
  %call4 = call noundef i32 @_ZN6hermes2vm13monthFromTimeEd(double noundef %4)
  %5 = load i8, ptr %leap, align 1
  %tobool = trunc i8 %5 to i1
  %call5 = call noundef i32 @_ZN6hermes2vmL12dayFromMonthEjb(i32 noundef %call4, i1 noundef zeroext %tobool)
  %conv = uitofp i32 %call5 to double
  %sub6 = fsub double %3, %conv
  %add = fadd double %sub6, 1.000000e+00
  ret double %add
}