; Function Attrs: mustprogress nofree nounwind memory(write) uwtable
define hidden noundef double @_ZN6hermes2vm12dateFromTimeEd(double noundef %t) local_unnamed_addr #5 {
entry:
  %call1 = tail call noundef double @_ZN6hermes2vm12yearFromTimeEd(double noundef %t)
  %call.i = tail call noundef double @_ZN6hermes2vm12yearFromTimeEd(double noundef %t)
  %call.i.i.i.i = tail call noundef double @fmod(double noundef %call.i, double noundef 4.000000e+00) #17
  %cmp.i.i.i = fcmp une double %call.i.i.i.i, 0.000000e+00
  br i1 %cmp.i.i.i, label %_ZN6hermes2vm10inLeapYearEd.exit.thread, label %if.end.i.i.i

if.end.i.i.i:                                     ; preds = %entry
  %call.i3.i.i.i = tail call noundef double @fmod(double noundef %call.i, double noundef 1.000000e+02) #17
  %cmp2.i.i.i = fcmp une double %call.i3.i.i.i, 0.000000e+00
  br i1 %cmp2.i.i.i, label %0, label %_ZN6hermes2vmL10isLeapYearEd.exit.i.i

_ZN6hermes2vmL10isLeapYearEd.exit.i.i:            ; preds = %if.end.i.i.i
  %call.i4.i.i.i = tail call noundef double @fmod(double noundef %call.i, double noundef 4.000000e+02) #17
  %cmp6.i.i.i = fcmp oeq double %call.i4.i.i.i, 0.000000e+00
  br i1 %cmp6.i.i.i, label %0, label %_ZN6hermes2vm10inLeapYearEd.exit.thread

0:                                                ; preds = %_ZN6hermes2vmL10isLeapYearEd.exit.i.i, %if.end.i.i.i
  br label %_ZN6hermes2vm10inLeapYearEd.exit.thread

_ZN6hermes2vm10inLeapYearEd.exit.thread:          ; preds = %entry, %_ZN6hermes2vmL10isLeapYearEd.exit.i.i, %0
  %_ZZN6hermes2vmL12dayFromMonthEjbE13standardTable.sink = phi ptr [ @_ZZN6hermes2vmL12dayFromMonthEjbE13leapYearTable, %0 ], [ @_ZZN6hermes2vmL12dayFromMonthEjbE13standardTable, %_ZN6hermes2vmL10isLeapYearEd.exit.i.i ], [ @_ZZN6hermes2vmL12dayFromMonthEjbE13standardTable, %entry ]
  %call46 = tail call noundef i32 @_ZN6hermes2vm13monthFromTimeEd(double noundef %t)
  %idxprom.i7 = zext i32 %call46 to i64
  %arrayidx2.i9 = getelementptr inbounds [13 x i16], ptr %_ZZN6hermes2vmL12dayFromMonthEjbE13standardTable.sink, i64 0, i64 %idxprom.i7
  %div.i = fdiv double %t, 8.640000e+07
  %1 = tail call noundef double @llvm.floor.f64(double %div.i)
  %sub5.i = fadd double %call1, -1.601000e+03
  %div6.i = fdiv double %sub5.i, 4.000000e+02
  %2 = tail call double @llvm.floor.f64(double %div6.i)
  %sub.i = fadd double %call1, -1.970000e+03
  %sub1.i = fadd double %call1, -1.969000e+03
  %div.i4 = fmul double %sub1.i, 2.500000e-01
  %3 = tail call double @llvm.floor.f64(double %div.i4)
  %4 = tail call double @llvm.fmuladd.f64(double %sub.i, double 3.650000e+02, double %3)
  %sub2.i = fadd double %call1, -1.901000e+03
  %div3.i = fdiv double %sub2.i, 1.000000e+02
  %5 = tail call double @llvm.floor.f64(double %div3.i)
  %sub4.i = fsub double %4, %5
  %add.i = fadd double %2, %sub4.i
  %sub = fsub double %1, %add.i
  %cond.i = load i16, ptr %arrayidx2.i9, align 2
  %conv = uitofp i16 %cond.i to double
  %sub6 = fsub double %sub, %conv
  %add = fadd double %sub6, 1.000000e+00
  ret double %add
}